; Function Attrs: mustprogress uwtable
define hidden void @_ZN11proto_model17register_aux_declEP9func_declP11func_interp(ptr noundef nonnull align 8 dereferenceable(177) %this, ptr noundef %d, ptr noundef %fi) local_unnamed_addr #3 align 2 {
entry:
  %tmp.i = alloca ptr, align 8
  tail call void @_ZN10model_core13register_declEP9func_declP11func_interp(ptr noundef nonnull align 8 dereferenceable(96) %this, ptr noundef %d, ptr noundef %fi)
  %m_aux_decls = getelementptr inbounds i8, ptr %this, i64 120
  call void @llvm.lifetime.start.p0(i64 8, ptr nonnull %tmp.i)
  store ptr %d, ptr %tmp.i, align 8
  call void @_ZN14core_hashtableI14obj_hash_entryI9func_declE12obj_ptr_hashIS1_E6ptr_eqIS1_EE6insertEOPS1_(ptr noundef nonnull align 8 dereferenceable(20) %m_aux_decls, ptr noundef nonnull align 8 dereferenceable(8) %tmp.i)
  call void @llvm.lifetime.end.p0(i64 8, ptr nonnull %tmp.i)
  ret void
}